(dp0
V1/0/50
p1
(dp2
S'tx_max_mbps'
p3
F0.0017114666666666668
sS'rx_max_mbps'
p4
F0.00029706666666666666
ssV1/0/51
p5
(dp6
g3
F0.00012159999999999999
sg4
F0.00011733333333333333
ssV1/0/22
p7
(dp8
g3
F6.666666666666667e-05
sg4
F0.00025173333333333334
ssV1/0/9
p9
(dp10
g3
F1039.4533882666667
sg4
F1039.5876858666666
ssV1/0/5
p11
(dp12
g3
F7.253333333333333e-05
sg4
F7.146666666666666e-05
ssV1/0/31
p13
(dp14
g3
F0.0009914666666666666
sg4
F0.0003690666666666667
ssV1/0/14
p15
(dp16
g3
F7.306666666666666e-05
sg4
F7.573333333333334e-05
ssV1/0/32
p17
(dp18
g3
F6.666666666666667e-05
sg4
F0.0004832
ssV1/0/10
p19
(dp20
g3
F1039.5881530666668
sg4
F1039.4536805333332
ssV1/0/3
p21
(dp22
g3
F7.253333333333333e-05
sg4
F7.146666666666666e-05
ss.