(dp0
V1/0/50
p1
(dp2
S'tx_last_octets'
p3
V51792160
p4
sS'tx_max_mbps'
p5
F0.0016309333333333334
sS'rx_max_mbps'
p6
F0.00018853333333333333
sS'rx_last_octets'
p7
V29810928
p8
ssV1/0/51
p9
(dp10
g3
V1035443161
p11
sg5
F7.946666666666667e-05
sg6
F8.240000000000001e-05
sg7
V51454720
p12
ssV1/0/22
p13
(dp14
g3
V5766604660
p15
sg5
F3.3333333333333335e-05
sg6
F0.00012586666666666667
sg7
V469525367
p16
ssV1/0/9
p17
(dp18
g3
V51357744737489
p19
sg5
F1039.4530330666666
sg6
F1038.9173309333332
sg7
V51353947606622
p20
ssV1/0/5
p21
(dp22
g3
V384056
p23
sg5
F3.626666666666666e-05
sg6
F3.573333333333333e-05
sg7
V371996
p24
ssV1/0/31
p25
(dp26
g3
V1087679837
p27
sg5
F0.001844
sg6
F0.0009616000000000001
sg7
V152433001
p28
ssV1/0/14
p29
(dp30
g3
V9178771
p31
sg5
F3.653333333333333e-05
sg6
F3.786666666666667e-05
sg7
V9511598
p32
ssV1/0/32
p33
(dp34
g3
V13352528
p35
sg5
F3.3333333333333335e-05
sg6
F0.0002416
sg7
V67547210
p36
ssV1/0/10
p37
(dp38
g3
V51354145046491
p39
sg5
F1038.918532
sg6
F1039.4532354666667
sg7
V51358011582775
p40
ssV1/0/3
p41
(dp42
g3
V13173976
p43
sg5
F3.626666666666666e-05
sg6
F3.573333333333333e-05
sg7
V2149160
p44
ss.