(dp0
V1/0/50
p1
(dp2
S'tx_last_octets'
p3
V73062620
p4
sS'tx_max_mbps'
p5
F0.0017232
sS'rx_max_mbps'
p6
F0.00020480000000000002
sS'rx_last_octets'
p7
V31740351
p8
ssV1/0/51
p9
(dp10
g3
V1036309117
p11
sg5
F0.00011653333333333334
sg6
F0.0001224
sg7
V52362339
p12
ssV1/0/22
p13
(dp14
g3
V5841064912
p15
sg5
F3.1513317333333335
sg6
F0.000168
sg7
V475057802
p16
ssV1/0/9
p17
(dp18
g3
V74220446002999
p19
sg5
F2207.690244266667
sg6
F2208.5974997333333
sg7
V74216446676263
p20
ssV1/0/5
p21
(dp22
g3
V899496
p23
sg5
F7.253333333333333e-05
sg6
F7.146666666666666e-05
sg7
V879722
p24
ssV1/0/31
p25
(dp26
g3
V1116378040
p27
sg5
F0.0019544000000000002
sg6
F0.0013477333333333334
sg7
V167108378
p28
ssV1/0/14
p29
(dp30
g3
V9698138
p31
sg5
F7.306666666666666e-05
sg6
F7.573333333333334e-05
sg7
V10049778
p32
ssV1/0/32
p33
(dp34
g3
V13826403
p35
sg5
F6.666666666666667e-05
sg6
F0.0004261333333333333
sg7
V69944894
p36
ssV1/0/10
p37
(dp38
g3
V74216744105479
p39
sg5
F2208.5988752
sg6
F2207.6904066666666
sg7
V74220624790288
p40
ssV1/0/3
p41
(dp42
g3
V13689552
p43
sg5
F7.253333333333333e-05
sg6
F7.146666666666666e-05
sg7
V2656886
p44
ss.